target datalayout = "e-m:e-p270:32:32-p271:32:32-p272:64:64-i64:64-i128:128-f80:128-n8:16:32:64-S128"
target triple = "x86_64-pc-linux-gnu"

%struct.CLibrary = type { ptr, ptr }
%struct.GCstr = type { %struct.GCRef, i8, i8, i8, i8, i32, i32, i32 }
%struct.GCRef = type { i64 }
%struct.CType = type { i32, i32, i16, i16, %struct.GCRef }
%struct.GCcdata = type { %struct.GCRef, i8, i8, i16 }
%struct.GChead = type { %struct.GCRef, i8, i8, i8, i8, %struct.GCRef, %struct.GCRef, %struct.GCRef }
%struct.lua_State = type { %struct.GCRef, i8, i8, i8, i8, %struct.MRef, %struct.GCRef, ptr, ptr, %struct.MRef, %struct.MRef, %struct.GCRef, %struct.GCRef, ptr, i32 }
%struct.MRef = type { i64 }
%struct.global_State = type { ptr, ptr, %struct.GCState, %struct.GCstr, i8, i8, i8, i8, %struct.StrInternState, i32, %struct.GCRef, %struct.SBuf, %union.TValue, %union.TValue, %struct.Node, %union.TValue, %struct.GCupval, i32, i32, ptr, ptr, ptr, i32, i32, %struct.GCRef, %struct.MRef, %struct.MRef, %struct.PRNGState, [39 x %struct.GCRef] }
%struct.GCState = type { i64, i64, i8, i8, i8, i8, i32, %struct.GCRef, %struct.MRef, %struct.GCRef, %struct.GCRef, %struct.GCRef, %struct.GCRef, i64, i64, i32, i32, %struct.MRef }
%struct.StrInternState = type { ptr, i32, i32, i32, i8, i8, i8, i8, i64 }
%struct.SBuf = type { ptr, ptr, ptr, %struct.MRef }
%struct.Node = type { %union.TValue, %union.TValue, %struct.MRef }
%union.TValue = type { i64 }
%struct.GCupval = type { %struct.GCRef, i8, i8, i8, i8, %union.anon, %struct.MRef, i32 }
%union.anon = type { %struct.anon.1 }
%struct.anon.1 = type { %struct.GCRef, %struct.GCRef }
%struct.PRNGState = type { [4 x i64] }
%struct.CTState = type { ptr, i32, i32, ptr, ptr, ptr, %struct.CCallback, [128 x i16] }
%struct.CCallback = type { [8 x %union.FPRCBArg], [8 x i64], ptr, ptr, ptr, i32, i32, i32 }
%union.FPRCBArg = type { double }
%struct.GCtab = type { %struct.GCRef, i8, i8, i8, i8, %struct.MRef, %struct.GCRef, %struct.GCRef, %struct.MRef, i32, i32, %struct.MRef }

@.str = private unnamed_addr constant [24 x i8] c"store to dead GC object\00", align 1

; Function Attrs: alwaysinline nounwind uwtable
define internal void @checklivetv(ptr noundef %0, ptr noundef %1, ptr noundef %2) #4 {
  %4 = alloca ptr, align 8
  %5 = alloca ptr, align 8
  %6 = alloca ptr, align 8
  store ptr %0, ptr %4, align 8, !tbaa !4
  store ptr %1, ptr %5, align 8, !tbaa !16
  store ptr %2, ptr %6, align 8, !tbaa !31
  ret void
}

; Function Attrs: alwaysinline nounwind uwtable
define internal void @setgcVraw(ptr noundef %0, ptr noundef %1, i32 noundef %2) #4 {
  %4 = alloca ptr, align 8
  %5 = alloca ptr, align 8
  %6 = alloca i32, align 4
  store ptr %0, ptr %4, align 8, !tbaa !16
  store ptr %1, ptr %5, align 8, !tbaa !63
  store i32 %2, ptr %6, align 4, !tbaa !21
  %7 = load ptr, ptr %5, align 8, !tbaa !63
  %8 = ptrtoint ptr %7 to i64
  %9 = load i32, ptr %6, align 4, !tbaa !21
  %10 = zext i32 %9 to i64
  %11 = shl i64 %10, 47
  %12 = or i64 %8, %11
  %13 = load ptr, ptr %4, align 8, !tbaa !16
  %14 = getelementptr inbounds nuw %struct.GCRef, ptr %13, i32 0, i32 0
  store i64 %12, ptr %14, align 8, !tbaa !18
  ret void
}

; Function Attrs: alwaysinline nounwind uwtable
define internal void @setgcV(ptr noundef %0, ptr noundef %1, ptr noundef %2, i32 noundef %3) #4 {
  %5 = alloca ptr, align 8
  %6 = alloca ptr, align 8
  %7 = alloca ptr, align 8
  %8 = alloca i32, align 4
  store ptr %0, ptr %5, align 8, !tbaa !4
  store ptr %1, ptr %6, align 8, !tbaa !16
  store ptr %2, ptr %7, align 8, !tbaa !63
  store i32 %3, ptr %8, align 4, !tbaa !21
  %9 = load ptr, ptr %6, align 8, !tbaa !16
  %10 = load ptr, ptr %7, align 8, !tbaa !63
  %11 = load i32, ptr %8, align 4, !tbaa !21
  call void @setgcVraw(ptr noundef %9, ptr noundef %10, i32 noundef %11)
  %12 = load ptr, ptr %5, align 8, !tbaa !4
  %13 = load ptr, ptr %6, align 8, !tbaa !16
  call void @checklivetv(ptr noundef %12, ptr noundef %13, ptr noundef @.str)
  ret void
}

; Function Attrs: alwaysinline nounwind uwtable
define internal i32 @ctype_check(ptr noundef %0, i32 noundef %1) #4 {
  %3 = alloca ptr, align 8
  %4 = alloca i32, align 4
  store ptr %0, ptr %3, align 8, !tbaa !19
  store i32 %1, ptr %4, align 4, !tbaa !21
  %5 = load i32, ptr %4, align 4, !tbaa !21
  ret i32 %5
}

; Function Attrs: alwaysinline nounwind uwtable
define internal ptr @ctype_get(ptr noundef %0, i32 noundef %1) #4 {
  %3 = alloca ptr, align 8
  %4 = alloca i32, align 4
  store ptr %0, ptr %3, align 8, !tbaa !19
  store i32 %1, ptr %4, align 4, !tbaa !21
  %5 = load ptr, ptr %3, align 8, !tbaa !19
  %6 = getelementptr inbounds nuw %struct.CTState, ptr %5, i32 0, i32 0
  %7 = load ptr, ptr %6, align 8, !tbaa !74
  %8 = load ptr, ptr %3, align 8, !tbaa !19
  %9 = load i32, ptr %4, align 4, !tbaa !21
  %10 = call i32 @ctype_check(ptr noundef %8, i32 noundef %9)
  %11 = zext i32 %10 to i64
  %12 = getelementptr inbounds nuw %struct.CType, ptr %7, i64 %11
  ret ptr %12
}

; Function Attrs: alwaysinline nounwind uwtable
define internal void @lj_gc_barrierback(ptr noundef %0, ptr noundef %1) #4 {
  %3 = alloca ptr, align 8
  %4 = alloca ptr, align 8
  %5 = alloca ptr, align 8
  store ptr %0, ptr %3, align 8, !tbaa !61
  store ptr %1, ptr %4, align 8, !tbaa !62
  call void @llvm.lifetime.start.p0(i64 8, ptr %5) #9
  %6 = load ptr, ptr %4, align 8, !tbaa !62
  store ptr %6, ptr %5, align 8, !tbaa !63
  %7 = load ptr, ptr %5, align 8, !tbaa !63
  %8 = getelementptr inbounds nuw %struct.GChead, ptr %7, i32 0, i32 1
  %9 = load i8, ptr %8, align 8, !tbaa !18
  %10 = zext i8 %9 to i32
  %11 = and i32 %10, 251
  %12 = trunc i32 %11 to i8
  store i8 %12, ptr %8, align 8, !tbaa !18
  %13 = load ptr, ptr %3, align 8, !tbaa !61
  %14 = getelementptr inbounds nuw %struct.global_State, ptr %13, i32 0, i32 2
  %15 = getelementptr inbounds nuw %struct.GCState, ptr %14, i32 0, i32 10
  %16 = getelementptr inbounds nuw %struct.GCRef, ptr %15, i32 0, i32 0
  %17 = load i64, ptr %16, align 8, !tbaa !65
  %18 = load ptr, ptr %4, align 8, !tbaa !62
  %19 = getelementptr inbounds nuw %struct.GCtab, ptr %18, i32 0, i32 6
  %20 = getelementptr inbounds nuw %struct.GCRef, ptr %19, i32 0, i32 0
  store i64 %17, ptr %20, align 8, !tbaa !66
  %21 = load ptr, ptr %5, align 8, !tbaa !63
  %22 = ptrtoint ptr %21 to i64
  %23 = load ptr, ptr %3, align 8, !tbaa !61
  %24 = getelementptr inbounds nuw %struct.global_State, ptr %23, i32 0, i32 2
  %25 = getelementptr inbounds nuw %struct.GCState, ptr %24, i32 0, i32 10
  %26 = getelementptr inbounds nuw %struct.GCRef, ptr %25, i32 0, i32 0
  store i64 %22, ptr %26, align 8, !tbaa !65
  call void @llvm.lifetime.end.p0(i64 8, ptr %5) #9
  ret void
}

; Function Attrs: alwaysinline nounwind uwtable
define internal void @setcdataV(ptr noundef %0, ptr noundef %1, ptr noundef %2) #4 {
  %4 = alloca ptr, align 8
  %5 = alloca ptr, align 8
  %6 = alloca ptr, align 8
  store ptr %0, ptr %4, align 8, !tbaa !4
  store ptr %1, ptr %5, align 8, !tbaa !16
  store ptr %2, ptr %6, align 8, !tbaa !34
  %7 = load ptr, ptr %4, align 8, !tbaa !4
  %8 = load ptr, ptr %5, align 8, !tbaa !16
  %9 = load ptr, ptr %6, align 8, !tbaa !34
  call void @setgcV(ptr noundef %7, ptr noundef %8, ptr noundef %9, i32 noundef -11)
  ret void
}

; Function Attrs: alwaysinline nounwind uwtable
define internal ptr @lj_cdata_new(ptr noundef %0, i32 noundef %1, i32 noundef %2) #4 {
  %4 = alloca ptr, align 8
  %5 = alloca i32, align 4
  %6 = alloca i32, align 4
  %7 = alloca ptr, align 8
  store ptr %0, ptr %4, align 8, !tbaa !19
  store i32 %1, ptr %5, align 4, !tbaa !21
  store i32 %2, ptr %6, align 4, !tbaa !21
  call void @llvm.lifetime.start.p0(i64 8, ptr %7) #9
  %8 = load ptr, ptr %4, align 8, !tbaa !19
  %9 = getelementptr inbounds nuw %struct.CTState, ptr %8, i32 0, i32 3
  %10 = load ptr, ptr %9, align 8, !tbaa !49
  %11 = load i32, ptr %6, align 4, !tbaa !21
  %12 = zext i32 %11 to i64
  %13 = add i64 16, %12
  %14 = call ptr @lj_mem_newgco(ptr noundef %10, i64 noundef %13)
  store ptr %14, ptr %7, align 8, !tbaa !34
  %15 = load ptr, ptr %7, align 8, !tbaa !34
  %16 = getelementptr inbounds nuw %struct.GCcdata, ptr %15, i32 0, i32 2
  store i8 10, ptr %16, align 1, !tbaa !58
  %17 = load ptr, ptr %4, align 8, !tbaa !19
  %18 = load i32, ptr %5, align 4, !tbaa !21
  %19 = call i32 @ctype_check(ptr noundef %17, i32 noundef %18)
  %20 = trunc i32 %19 to i16
  %21 = load ptr, ptr %7, align 8, !tbaa !34
  %22 = getelementptr inbounds nuw %struct.GCcdata, ptr %21, i32 0, i32 3
  store i16 %20, ptr %22, align 2, !tbaa !60
  %23 = load ptr, ptr %7, align 8, !tbaa !34
  call void @llvm.lifetime.end.p0(i64 8, ptr %7) #9
  ret ptr %23
}

; Function Attrs: nounwind uwtable
define internal ptr @clib_getsym(ptr noundef %0, ptr noundef %1) #0 {
  %3 = alloca ptr, align 8
  %4 = alloca ptr, align 8
  %5 = alloca ptr, align 8
  store ptr %0, ptr %3, align 8, !tbaa !9
  store ptr %1, ptr %4, align 8, !tbaa !31
  call void @llvm.lifetime.start.p0(i64 8, ptr %5) #9
  %6 = load ptr, ptr %3, align 8, !tbaa !9
  %7 = getelementptr inbounds nuw %struct.CLibrary, ptr %6, i32 0, i32 0
  %8 = load ptr, ptr %7, align 8, !tbaa !57
  %9 = load ptr, ptr %4, align 8, !tbaa !31
  %10 = call ptr @dlsym(ptr noundef %8, ptr noundef %9) #9
  store ptr %10, ptr %5, align 8, !tbaa !33
  %11 = load ptr, ptr %5, align 8, !tbaa !33
  call void @llvm.lifetime.end.p0(i64 8, ptr %5) #9
  ret ptr %11
}

; Function Attrs: nounwind uwtable
define internal ptr @clib_extsym(ptr noundef %0, ptr noundef %1, ptr noundef %2) #0 {
  %4 = alloca ptr, align 8
  %5 = alloca ptr, align 8
  %6 = alloca ptr, align 8
  %7 = alloca ptr, align 8
  %8 = alloca ptr, align 8
  %9 = alloca i32, align 4
  store ptr %0, ptr %5, align 8, !tbaa !19
  store ptr %1, ptr %6, align 8, !tbaa !23
  store ptr %2, ptr %7, align 8, !tbaa !11
  %10 = load ptr, ptr %6, align 8, !tbaa !23
  %11 = getelementptr inbounds nuw %struct.CType, ptr %10, i32 0, i32 2
  %12 = load i16, ptr %11, align 8, !tbaa !55
  %13 = icmp ne i16 %12, 0
  br i1 %13, label %14, label %37

14:                                               ; preds = %3
  call void @llvm.lifetime.start.p0(i64 8, ptr %8) #9
  %15 = load ptr, ptr %5, align 8, !tbaa !19
  %16 = load ptr, ptr %6, align 8, !tbaa !23
  %17 = getelementptr inbounds nuw %struct.CType, ptr %16, i32 0, i32 2
  %18 = load i16, ptr %17, align 8, !tbaa !55
  %19 = zext i16 %18 to i32
  %20 = call ptr @ctype_get(ptr noundef %15, i32 noundef %19)
  store ptr %20, ptr %8, align 8, !tbaa !23
  %21 = load ptr, ptr %8, align 8, !tbaa !23
  %22 = getelementptr inbounds nuw %struct.CType, ptr %21, i32 0, i32 0
  %23 = load i32, ptr %22, align 8, !tbaa !25
  %24 = and i32 %23, -251723776
  %25 = icmp eq i32 %24, -2147221504
  br i1 %25, label %26, label %33

26:                                               ; preds = %14
  %27 = load ptr, ptr %8, align 8, !tbaa !23
  %28 = getelementptr inbounds nuw %struct.CType, ptr %27, i32 0, i32 4
  %29 = getelementptr inbounds nuw %struct.GCRef, ptr %28, i32 0, i32 0
  %30 = load i64, ptr %29, align 8, !tbaa !56
  %31 = inttoptr i64 %30 to ptr
  %32 = getelementptr inbounds %struct.GCstr, ptr %31, i64 1
  store ptr %32, ptr %4, align 8
  store i32 1, ptr %9, align 4
  br label %34

33:                                               ; preds = %14
  store i32 0, ptr %9, align 4
  br label %34

34:                                               ; preds = %33, %26
  call void @llvm.lifetime.end.p0(i64 8, ptr %8) #9
  %35 = load i32, ptr %9, align 4
  switch i32 %35, label %42 [
    i32 0, label %36
    i32 1, label %40
  ]

36:                                               ; preds = %34
  br label %37

37:                                               ; preds = %36, %3
  %38 = load ptr, ptr %7, align 8, !tbaa !11
  %39 = getelementptr inbounds %struct.GCstr, ptr %38, i64 1
  store ptr %39, ptr %4, align 8
  br label %40

40:                                               ; preds = %37, %34
  %41 = load ptr, ptr %4, align 8
  ret ptr %41

42:                                               ; preds = %34
  unreachable
}

; Function Attrs: alwaysinline nounwind uwtable
define internal void @setintV(ptr noundef %0, i32 noundef %1) #4 {
  %3 = alloca ptr, align 8
  %4 = alloca i32, align 4
  store ptr %0, ptr %3, align 8, !tbaa !16
  store i32 %1, ptr %4, align 4, !tbaa !21
  %5 = load i32, ptr %4, align 4, !tbaa !21
  %6 = sitofp i32 %5 to double
  %7 = load ptr, ptr %3, align 8, !tbaa !16
  store double %6, ptr %7, align 8, !tbaa !18
  ret void
}

; Function Attrs: alwaysinline nounwind uwtable
define internal ptr @ctype_child(ptr noundef %0, ptr noundef %1) #4 {
  %3 = alloca ptr, align 8
  %4 = alloca ptr, align 8
  store ptr %0, ptr %3, align 8, !tbaa !19
  store ptr %1, ptr %4, align 8, !tbaa !23
  %5 = load ptr, ptr %3, align 8, !tbaa !19
  %6 = load ptr, ptr %4, align 8, !tbaa !23
  %7 = getelementptr inbounds nuw %struct.CType, ptr %6, i32 0, i32 0
  %8 = load i32, ptr %7, align 8, !tbaa !25
  %9 = and i32 %8, 65535
  %10 = call ptr @ctype_get(ptr noundef %5, i32 noundef %9)
  ret ptr %10
}

; Function Attrs: alwaysinline nounwind uwtable
define internal ptr @ctype_cts(ptr noundef %0) #4 {
  %2 = alloca ptr, align 8
  %3 = alloca ptr, align 8
  store ptr %0, ptr %2, align 8, !tbaa !4
  call void @llvm.lifetime.start.p0(i64 8, ptr %3) #9
  %4 = load ptr, ptr %2, align 8, !tbaa !4
  %5 = getelementptr inbounds nuw %struct.lua_State, ptr %4, i32 0, i32 5
  %6 = getelementptr inbounds nuw %struct.MRef, ptr %5, i32 0, i32 0
  %7 = load i64, ptr %6, align 8, !tbaa !36
  %8 = inttoptr i64 %7 to ptr
  %9 = getelementptr inbounds nuw %struct.global_State, ptr %8, i32 0, i32 26
  %10 = getelementptr inbounds nuw %struct.MRef, ptr %9, i32 0, i32 0
  %11 = load i64, ptr %10, align 8, !tbaa !39
  %12 = inttoptr i64 %11 to ptr
  store ptr %12, ptr %3, align 8, !tbaa !19
  %13 = load ptr, ptr %2, align 8, !tbaa !4
  %14 = load ptr, ptr %3, align 8, !tbaa !19
  %15 = getelementptr inbounds nuw %struct.CTState, ptr %14, i32 0, i32 3
  store ptr %13, ptr %15, align 8, !tbaa !49
  %16 = load ptr, ptr %3, align 8, !tbaa !19
  call void @llvm.lifetime.end.p0(i64 8, ptr %3) #9
  ret ptr %16
}

; Function Attrs: nounwind uwtable
define hidden ptr @lj_clib_index(ptr noundef %0, ptr noundef %1, ptr noundef %2) #0 {
  %4 = alloca ptr, align 8
  %5 = alloca ptr, align 8
  %6 = alloca ptr, align 8
  %7 = alloca ptr, align 8
  %8 = alloca ptr, align 8
  %9 = alloca ptr, align 8
  %10 = alloca i32, align 4
  %11 = alloca ptr, align 8
  %12 = alloca ptr, align 8
  %13 = alloca ptr, align 8
  %14 = alloca ptr, align 8
  store ptr %0, ptr %4, align 8, !tbaa !4
  store ptr %1, ptr %5, align 8, !tbaa !9
  store ptr %2, ptr %6, align 8, !tbaa !11
  call void @llvm.lifetime.start.p0(i64 8, ptr %7) #9
  %15 = load ptr, ptr %4, align 8, !tbaa !4
  %16 = load ptr, ptr %5, align 8, !tbaa !9
  %17 = getelementptr inbounds nuw %struct.CLibrary, ptr %16, i32 0, i32 1
  %18 = load ptr, ptr %17, align 8, !tbaa !13
  %19 = load ptr, ptr %6, align 8, !tbaa !11
  %20 = call ptr @lj_tab_setstr(ptr noundef %15, ptr noundef %18, ptr noundef %19)
  store ptr %20, ptr %7, align 8, !tbaa !16
  %21 = load ptr, ptr %7, align 8, !tbaa !16
  %22 = load i64, ptr %21, align 8, !tbaa !18
  %23 = icmp eq i64 %22, -1
  %24 = xor i1 %23, true
  %25 = xor i1 %24, true
  %26 = zext i1 %25 to i32
  %27 = sext i32 %26 to i64
  %28 = call i64 @llvm.expect.i64(i64 %27, i64 0)
  %29 = icmp ne i64 %28, 0
  br i1 %29, label %30, label %121

30:                                               ; preds = %3
  call void @llvm.lifetime.start.p0(i64 8, ptr %8) #9
  %31 = load ptr, ptr %4, align 8, !tbaa !4
  %32 = call ptr @ctype_cts(ptr noundef %31)
  store ptr %32, ptr %8, align 8, !tbaa !19
  call void @llvm.lifetime.start.p0(i64 8, ptr %9) #9
  call void @llvm.lifetime.start.p0(i64 4, ptr %10) #9
  %33 = load ptr, ptr %8, align 8, !tbaa !19
  %34 = load ptr, ptr %6, align 8, !tbaa !11
  %35 = call i32 @lj_ctype_getname(ptr noundef %33, ptr noundef %9, ptr noundef %34, i32 noundef 6208)
  store i32 %35, ptr %10, align 4, !tbaa !21
  %36 = load i32, ptr %10, align 4, !tbaa !21
  %37 = icmp ne i32 %36, 0
  br i1 %37, label %42, label %38

38:                                               ; preds = %30
  %39 = load ptr, ptr %4, align 8, !tbaa !4
  %40 = load ptr, ptr %6, align 8, !tbaa !11
  %41 = getelementptr inbounds %struct.GCstr, ptr %40, i64 1
  call void (ptr, i32, ...) @lj_err_callerv(ptr noundef %39, i32 noundef 3632, ptr noundef %41) #10
  unreachable

42:                                               ; preds = %30
  %43 = load ptr, ptr %9, align 8, !tbaa !23
  %44 = getelementptr inbounds nuw %struct.CType, ptr %43, i32 0, i32 0
  %45 = load i32, ptr %44, align 8, !tbaa !25
  %46 = lshr i32 %45, 28
  %47 = icmp eq i32 %46, 11
  br i1 %47, label %48, label %74

48:                                               ; preds = %42
  call void @llvm.lifetime.start.p0(i64 8, ptr %11) #9
  %49 = load ptr, ptr %8, align 8, !tbaa !19
  %50 = load ptr, ptr %9, align 8, !tbaa !23
  %51 = call ptr @ctype_child(ptr noundef %49, ptr noundef %50)
  store ptr %51, ptr %11, align 8, !tbaa !23
  %52 = load ptr, ptr %11, align 8, !tbaa !23
  %53 = getelementptr inbounds nuw %struct.CType, ptr %52, i32 0, i32 0
  %54 = load i32, ptr %53, align 8, !tbaa !25
  %55 = and i32 %54, 8388608
  %56 = icmp ne i32 %55, 0
  br i1 %56, label %57, label %68

57:                                               ; preds = %48
  %58 = load ptr, ptr %9, align 8, !tbaa !23
  %59 = getelementptr inbounds nuw %struct.CType, ptr %58, i32 0, i32 1
  %60 = load i32, ptr %59, align 4, !tbaa !30
  %61 = icmp slt i32 %60, 0
  br i1 %61, label %62, label %68

62:                                               ; preds = %57
  %63 = load ptr, ptr %9, align 8, !tbaa !23
  %64 = getelementptr inbounds nuw %struct.CType, ptr %63, i32 0, i32 1
  %65 = load i32, ptr %64, align 4, !tbaa !30
  %66 = uitofp i32 %65 to double
  %67 = load ptr, ptr %7, align 8, !tbaa !16
  store double %66, ptr %67, align 8, !tbaa !18
  br label %73

68:                                               ; preds = %57, %48
  %69 = load ptr, ptr %7, align 8, !tbaa !16
  %70 = load ptr, ptr %9, align 8, !tbaa !23
  %71 = getelementptr inbounds nuw %struct.CType, ptr %70, i32 0, i32 1
  %72 = load i32, ptr %71, align 4, !tbaa !30
  call void @setintV(ptr noundef %69, i32 noundef %72)
  br label %73

73:                                               ; preds = %68, %62
  call void @llvm.lifetime.end.p0(i64 8, ptr %11) #9
  br label %120

74:                                               ; preds = %42
  call void @llvm.lifetime.start.p0(i64 8, ptr %12) #9
  %75 = load ptr, ptr %8, align 8, !tbaa !19
  %76 = load ptr, ptr %9, align 8, !tbaa !23
  %77 = load ptr, ptr %6, align 8, !tbaa !11
  %78 = call ptr @clib_extsym(ptr noundef %75, ptr noundef %76, ptr noundef %77)
  store ptr %78, ptr %12, align 8, !tbaa !31
  call void @llvm.lifetime.start.p0(i64 8, ptr %13) #9
  %79 = load ptr, ptr %5, align 8, !tbaa !9
  %80 = load ptr, ptr %12, align 8, !tbaa !31
  %81 = call ptr @clib_getsym(ptr noundef %79, ptr noundef %80)
  store ptr %81, ptr %13, align 8, !tbaa !33
  call void @llvm.lifetime.start.p0(i64 8, ptr %14) #9
  %82 = load ptr, ptr %13, align 8, !tbaa !33
  %83 = icmp ne ptr %82, null
  br i1 %83, label %86, label %84

84:                                               ; preds = %74
  %85 = load ptr, ptr %4, align 8, !tbaa !4
  call void @clib_error_(ptr noundef %85) #10
  unreachable

86:                                               ; preds = %74
  %87 = load ptr, ptr %8, align 8, !tbaa !19
  %88 = load i32, ptr %10, align 4, !tbaa !21
  %89 = call ptr @lj_cdata_new(ptr noundef %87, i32 noundef %88, i32 noundef 8)
  store ptr %89, ptr %14, align 8, !tbaa !34
  %90 = load ptr, ptr %13, align 8, !tbaa !33
  %91 = load ptr, ptr %14, align 8, !tbaa !34
  %92 = getelementptr inbounds %struct.GCcdata, ptr %91, i64 1
  store ptr %90, ptr %92, align 8, !tbaa !33
  %93 = load ptr, ptr %4, align 8, !tbaa !4
  %94 = load ptr, ptr %7, align 8, !tbaa !16
  %95 = load ptr, ptr %14, align 8, !tbaa !34
  call void @setcdataV(ptr noundef %93, ptr noundef %94, ptr noundef %95)
  %96 = load ptr, ptr %5, align 8, !tbaa !9
  %97 = getelementptr inbounds nuw %struct.CLibrary, ptr %96, i32 0, i32 1
  %98 = load ptr, ptr %97, align 8, !tbaa !13
  %99 = getelementptr inbounds nuw %struct.GChead, ptr %98, i32 0, i32 1
  %100 = load i8, ptr %99, align 8, !tbaa !18
  %101 = zext i8 %100 to i32
  %102 = and i32 %101, 4
  %103 = icmp ne i32 %102, 0
  %104 = xor i1 %103, true
  %105 = xor i1 %104, true
  %106 = zext i1 %105 to i32
  %107 = sext i32 %106 to i64
  %108 = call i64 @llvm.expect.i64(i64 %107, i64 0)
  %109 = icmp ne i64 %108, 0
  br i1 %109, label %110, label %119

110:                                              ; preds = %86
  %111 = load ptr, ptr %4, align 8, !tbaa !4
  %112 = getelementptr inbounds nuw %struct.lua_State, ptr %111, i32 0, i32 5
  %113 = getelementptr inbounds nuw %struct.MRef, ptr %112, i32 0, i32 0
  %114 = load i64, ptr %113, align 8, !tbaa !36
  %115 = inttoptr i64 %114 to ptr
  %116 = load ptr, ptr %5, align 8, !tbaa !9
  %117 = getelementptr inbounds nuw %struct.CLibrary, ptr %116, i32 0, i32 1
  %118 = load ptr, ptr %117, align 8, !tbaa !13
  call void @lj_gc_barrierback(ptr noundef %115, ptr noundef %118)
  br label %119

119:                                              ; preds = %110, %86
  call void @llvm.lifetime.end.p0(i64 8, ptr %14) #9
  call void @llvm.lifetime.end.p0(i64 8, ptr %13) #9
  call void @llvm.lifetime.end.p0(i64 8, ptr %12) #9
  br label %120

120:                                              ; preds = %119, %73
  call void @llvm.lifetime.end.p0(i64 4, ptr %10) #9
  call void @llvm.lifetime.end.p0(i64 8, ptr %9) #9
  call void @llvm.lifetime.end.p0(i64 8, ptr %8) #9
  br label %121

121:                                              ; preds = %120, %3
  %122 = load ptr, ptr %7, align 8, !tbaa !16
  call void @llvm.lifetime.end.p0(i64 8, ptr %7) #9
  ret ptr %122
}