; Function Attrs: nounwind uwtable
define hidden noundef ptr @lj_clib_index(ptr noundef %0, ptr noundef readonly captures(none) %1, ptr noundef %2) local_unnamed_addr #0 {
  %4 = alloca ptr, align 8
  %5 = getelementptr inbounds nuw i8, ptr %1, i64 8
  %6 = load ptr, ptr %5, align 8, !tbaa !4
  %7 = tail call ptr @lj_tab_setstr(ptr noundef %0, ptr noundef %6, ptr noundef %2) #9
  %8 = load i64, ptr %7, align 8, !tbaa !10
  %9 = icmp eq i64 %8, -1
  br i1 %9, label %10, label %73, !prof !11

10:                                               ; preds = %3
  %11 = getelementptr inbounds nuw i8, ptr %0, i64 16
  %12 = load i64, ptr %11, align 8, !tbaa !12
  %13 = inttoptr i64 %12 to ptr
  %14 = getelementptr inbounds nuw i8, ptr %13, i64 384
  %15 = load i64, ptr %14, align 8, !tbaa !19
  %16 = inttoptr i64 %15 to ptr
  %17 = getelementptr inbounds nuw i8, ptr %16, i64 16
  store ptr %0, ptr %17, align 8, !tbaa !30
  call void @llvm.lifetime.start.p0(i64 8, ptr nonnull %4) #9
  %18 = call i32 @lj_ctype_getname(ptr noundef %16, ptr noundef nonnull %4, ptr noundef %2, i32 noundef 6208) #9
  %.not = icmp eq i32 %18, 0
  br i1 %.not, label %19, label %21

19:                                               ; preds = %10
  %20 = getelementptr inbounds nuw i8, ptr %2, i64 24
  call void (ptr, i32, ...) @lj_err_callerv(ptr noundef nonnull %0, i32 noundef 3632, ptr noundef nonnull %20) #10
  unreachable

21:                                               ; preds = %10
  %22 = load ptr, ptr %4, align 8, !tbaa !38
  %23 = load i32, ptr %22, align 8, !tbaa !39
  %.mask = and i32 %23, -268435456
  %24 = icmp eq i32 %.mask, -1342177280
  br i1 %24, label %25, label %36

25:                                               ; preds = %21
  %26 = and i32 %23, 65535
  %27 = load ptr, ptr %16, align 8, !tbaa !42
  %28 = zext nneg i32 %26 to i64
  %29 = getelementptr inbounds nuw %struct.CType, ptr %27, i64 %28
  %30 = load i32, ptr %29, align 8, !tbaa !39
  %31 = and i32 %30, 8388608
  %.not34 = icmp ne i32 %31, 0
  %.phi.trans.insert = getelementptr inbounds nuw i8, ptr %22, i64 4
  %.pre = load i32, ptr %.phi.trans.insert, align 4, !tbaa !43
  %32 = icmp slt i32 %.pre, 0
  %or.cond = select i1 %.not34, i1 %32, i1 false
  br i1 %or.cond, label %33, label %._crit_edge

33:                                               ; preds = %25
  %34 = uitofp i32 %.pre to double
  store double %34, ptr %7, align 8, !tbaa !10
  br label %72

._crit_edge:                                      ; preds = %25
  %35 = sitofp i32 %.pre to double
  store double %35, ptr %7, align 8, !tbaa !10
  br label %72

36:                                               ; preds = %21
  %37 = getelementptr i8, ptr %22, i64 8
  %.val = load i16, ptr %37, align 8, !tbaa !44
  %.not.i = icmp eq i16 %.val, 0
  br i1 %.not.i, label %clib_extsym.exit, label %38

38:                                               ; preds = %36
  %39 = load ptr, ptr %16, align 8, !tbaa !42
  %40 = zext i16 %.val to i64
  %41 = getelementptr inbounds nuw %struct.CType, ptr %39, i64 %40
  %42 = load i32, ptr %41, align 8, !tbaa !39
  %43 = and i32 %42, -251723776
  %44 = icmp eq i32 %43, -2147221504
  br i1 %44, label %45, label %clib_extsym.exit

45:                                               ; preds = %38
  %46 = getelementptr inbounds nuw i8, ptr %41, i64 16
  %47 = load i64, ptr %46, align 8, !tbaa !45
  %48 = inttoptr i64 %47 to ptr
  br label %clib_extsym.exit

clib_extsym.exit:                                 ; preds = %36, %38, %45
  %.pn.i = phi ptr [ %48, %45 ], [ %2, %38 ], [ %2, %36 ]
  %.1.i = getelementptr inbounds nuw i8, ptr %.pn.i, i64 24
  %.val35 = load ptr, ptr %1, align 8, !tbaa !46
  %49 = call ptr @dlsym(ptr noundef %.val35, ptr noundef nonnull %.1.i) #9
  %.not32 = icmp eq ptr %49, null
  br i1 %.not32, label %50, label %51

50:                                               ; preds = %clib_extsym.exit
  call fastcc void @clib_error_(ptr noundef nonnull %0) #11
  unreachable

51:                                               ; preds = %clib_extsym.exit
  %52 = load ptr, ptr %17, align 8, !tbaa !30
  %53 = call ptr @lj_mem_newgco(ptr noundef %52, i64 noundef 24) #9
  %54 = getelementptr inbounds nuw i8, ptr %53, i64 9
  store i8 10, ptr %54, align 1, !tbaa !47
  %55 = trunc i32 %18 to i16
  %56 = getelementptr inbounds nuw i8, ptr %53, i64 10
  store i16 %55, ptr %56, align 2, !tbaa !49
  %57 = getelementptr inbounds nuw i8, ptr %53, i64 16
  store ptr %49, ptr %57, align 8, !tbaa !50
  %58 = ptrtoint ptr %53 to i64
  %59 = or i64 %58, -1548112371908608
  store i64 %59, ptr %7, align 8, !tbaa !10
  %60 = load ptr, ptr %5, align 8, !tbaa !4
  %61 = getelementptr inbounds nuw i8, ptr %60, i64 8
  %62 = load i8, ptr %61, align 8, !tbaa !10
  %63 = and i8 %62, 4
  %.not33 = icmp eq i8 %63, 0
  br i1 %.not33, label %72, label %64, !prof !51

64:                                               ; preds = %51
  %65 = load i64, ptr %11, align 8, !tbaa !12
  %66 = inttoptr i64 %65 to ptr
  %67 = and i8 %62, -5
  store i8 %67, ptr %61, align 8, !tbaa !10
  %68 = getelementptr inbounds nuw i8, ptr %66, i64 64
  %69 = load i64, ptr %68, align 8, !tbaa !52
  %70 = getelementptr inbounds nuw i8, ptr %60, i64 24
  store i64 %69, ptr %70, align 8, !tbaa !53
  %71 = ptrtoint ptr %60 to i64
  store i64 %71, ptr %68, align 8, !tbaa !52
  br label %72

72:                                               ; preds = %51, %64, %33, %._crit_edge
  call void @llvm.lifetime.end.p0(i64 8, ptr nonnull %4) #9
  br label %73

73:                                               ; preds = %72, %3
  ret ptr %7
}